; Function Attrs: mustprogress nofree norecurse nounwind willreturn memory(argmem: readwrite) uwtable
define void @_ZN6icu_7515RBBIDataWrapper5init0Ev(ptr nocapture noundef nonnull writeonly align 8 dereferenceable(137) %this) local_unnamed_addr #1 align 2 personality ptr @__gxx_personality_v0 {
entry:
  %fTrie = getelementptr inbounds i8, ptr %this, i64 48
  store ptr null, ptr %fTrie, align 8
  %fUDataMem = getelementptr inbounds i8, ptr %this, i64 64
  store ptr null, ptr %fUDataMem, align 8
  %fRefCount = getelementptr inbounds i8, ptr %this, i64 56
  tail call void @llvm.memset.p0.i64(ptr noundef nonnull align 8 dereferenceable(40) %this, i8 0, i64 40, i1 false)
  store atomic i32 0, ptr %fRefCount seq_cst, align 8
  %fDontFreeData = getelementptr inbounds i8, ptr %this, i64 136
  store i8 1, ptr %fDontFreeData, align 8
  ret void
}